target datalayout = "e-m:e-p270:32:32-p271:32:32-p272:64:64-i64:64-i128:128-f80:128-n8:16:32:64-S128"
target triple = "x86_64-pc-linux-gnu"

%struct.pointf_s = type { double, double }
%struct.GVJ_s = type { ptr, ptr, ptr, ptr, ptr, ptr, i32, ptr, ptr, ptr, ptr, i64, i64, ptr, i32, %struct.gvplugin_active_render_s, %struct.gvplugin_active_device_s, %struct.gvplugin_active_loadimage_t, ptr, %struct.pointf_s, i8, ptr, i32, ptr, i8, ptr, i32, i32, i32, %struct.point, %struct.point, %struct.point, %struct.point, %struct.point, i32, %struct.boxf, %struct.pointf_s, %struct.boxf, %struct.boxf, %struct.pointf_s, %struct.pointf_s, double, i32, %struct.pointf_s, %struct.boxf, %struct.pointf_s, %struct.pointf_s, i32, i32, %struct.box, %struct.box, %struct.pointf_s, %struct.pointf_s, %struct.pointf_s, i8, i8, i8, i8, i8, i8, %struct.pointf_s, %struct.pointf_s, ptr, ptr, ptr, ptr, ptr, ptr, i64, ptr }
%struct.gvplugin_active_render_s = type { ptr, i32, ptr, ptr }
%struct.gvplugin_active_device_s = type { ptr, i32, ptr, ptr }
%struct.gvplugin_active_loadimage_t = type { ptr, i32, ptr }
%struct.point = type { i32, i32 }
%struct.boxf = type { %struct.pointf_s, %struct.pointf_s }
%struct.box = type { %struct.point, %struct.point }

@stderr = external global ptr, align 8
@.str.10 = private unnamed_addr constant [58 x i8] c"integer overflow when trying to allocate %zu * %zu bytes\0A\00", align 1
@.str.11 = private unnamed_addr constant [49 x i8] c"out of memory when trying to allocate %zu bytes\0A\00", align 1

; Function Attrs: inlinehint nounwind uwtable
define internal ptr @gv_calloc(i64 noundef %0, i64 noundef %1) #2 {
  %3 = alloca i64, align 8
  %4 = alloca i64, align 8
  %5 = alloca ptr, align 8
  store i64 %0, ptr %3, align 8, !tbaa !34
  store i64 %1, ptr %4, align 8, !tbaa !34
  %6 = load i64, ptr %3, align 8, !tbaa !34
  %7 = icmp ugt i64 %6, 0
  br i1 %7, label %8, label %18

8:                                                ; preds = %2
  %9 = load i64, ptr %3, align 8, !tbaa !34
  %10 = udiv i64 -1, %9
  %11 = load i64, ptr %4, align 8, !tbaa !34
  %12 = icmp ult i64 %10, %11
  br i1 %12, label %13, label %18

13:                                               ; preds = %8
  %14 = load ptr, ptr @stderr, align 8, !tbaa !43
  %15 = load i64, ptr %3, align 8, !tbaa !34
  %16 = load i64, ptr %4, align 8, !tbaa !34
  %17 = call i32 (ptr, ptr, ...) @fprintf(ptr noundef %14, ptr noundef @.str.10, i64 noundef %15, i64 noundef %16) #8
  call void @graphviz_exit(i32 noundef 1) #9
  unreachable

18:                                               ; preds = %8, %2
  call void @llvm.lifetime.start.p0(i64 8, ptr %5) #8
  %19 = load i64, ptr %3, align 8, !tbaa !34
  %20 = load i64, ptr %4, align 8, !tbaa !34
  %21 = call noalias ptr @calloc(i64 noundef %19, i64 noundef %20) #10
  store ptr %21, ptr %5, align 8, !tbaa !49
  %22 = load i64, ptr %3, align 8, !tbaa !34
  %23 = icmp ugt i64 %22, 0
  br i1 %23, label %24, label %36

24:                                               ; preds = %18
  %25 = load i64, ptr %4, align 8, !tbaa !34
  %26 = icmp ugt i64 %25, 0
  br i1 %26, label %27, label %36

27:                                               ; preds = %24
  %28 = load ptr, ptr %5, align 8, !tbaa !49
  %29 = icmp eq ptr %28, null
  br i1 %29, label %30, label %36

30:                                               ; preds = %27
  %31 = load ptr, ptr @stderr, align 8, !tbaa !43
  %32 = load i64, ptr %3, align 8, !tbaa !34
  %33 = load i64, ptr %4, align 8, !tbaa !34
  %34 = mul i64 %32, %33
  %35 = call i32 (ptr, ptr, ...) @fprintf(ptr noundef %31, ptr noundef @.str.11, i64 noundef %34) #8
  call void @graphviz_exit(i32 noundef 1) #9
  unreachable

36:                                               ; preds = %27, %24, %18
  %37 = load ptr, ptr %5, align 8, !tbaa !49
  call void @llvm.lifetime.end.p0(i64 8, ptr %5) #8
  ret ptr %37
}

; Function Attrs: inlinehint nounwind uwtable
define internal ptr @gv_alloc(i64 noundef %0) #2 {
  %2 = alloca i64, align 8
  store i64 %0, ptr %2, align 8, !tbaa !34
  %3 = load i64, ptr %2, align 8, !tbaa !34
  %4 = call ptr @gv_calloc(i64 noundef 1, i64 noundef %3)
  ret ptr %4
}

; Function Attrs: nounwind uwtable
define internal i32 @zlib_compress(ptr noundef %0, i64 noundef %1, ptr noundef %2, ptr noundef %3) #0 {
  %5 = alloca ptr, align 8
  %6 = alloca i64, align 8
  %7 = alloca ptr, align 8
  %8 = alloca ptr, align 8
  %9 = alloca i64, align 8
  %10 = alloca i32, align 4
  store ptr %0, ptr %5, align 8, !tbaa !31
  store i64 %1, ptr %6, align 8, !tbaa !34
  store ptr %2, ptr %7, align 8, !tbaa !45
  store ptr %3, ptr %8, align 8, !tbaa !47
  call void @llvm.lifetime.start.p0(i64 8, ptr %9) #8
  %11 = load i64, ptr %6, align 8, !tbaa !34
  %12 = call i64 @compressBound(i64 noundef %11)
  store i64 %12, ptr %9, align 8, !tbaa !34
  %13 = load i64, ptr %9, align 8, !tbaa !34
  %14 = call ptr @gv_alloc(i64 noundef %13)
  %15 = load ptr, ptr %7, align 8, !tbaa !45
  store ptr %14, ptr %15, align 8, !tbaa !31
  call void @llvm.lifetime.start.p0(i64 4, ptr %10) #8
  %16 = load ptr, ptr %7, align 8, !tbaa !45
  %17 = load ptr, ptr %16, align 8, !tbaa !31
  %18 = load ptr, ptr %5, align 8, !tbaa !31
  %19 = load i64, ptr %6, align 8, !tbaa !34
  %20 = call i32 @compress(ptr noundef %17, ptr noundef %9, ptr noundef %18, i64 noundef %19)
  store i32 %20, ptr %10, align 4, !tbaa !39
  %21 = load i64, ptr %9, align 8, !tbaa !34
  %22 = load ptr, ptr %8, align 8, !tbaa !47
  store i64 %21, ptr %22, align 8, !tbaa !34
  %23 = load i32, ptr %10, align 4, !tbaa !39
  call void @llvm.lifetime.end.p0(i64 4, ptr %10) #8
  call void @llvm.lifetime.end.p0(i64 8, ptr %9) #8
  ret i32 %23
}

; Function Attrs: inlinehint nounwind uwtable
define internal void @argb2rgba(i64 noundef %0, i64 noundef %1, ptr noundef %2) #2 {
  %4 = alloca i64, align 8
  %5 = alloca i64, align 8
  %6 = alloca ptr, align 8
  %7 = alloca i64, align 8
  %8 = alloca i32, align 4
  %9 = alloca i64, align 8
  %10 = alloca i8, align 1
  %11 = alloca i8, align 1
  store i64 %0, ptr %4, align 8, !tbaa !34
  store i64 %1, ptr %5, align 8, !tbaa !34
  store ptr %2, ptr %6, align 8, !tbaa !31
  call void @llvm.lifetime.start.p0(i64 8, ptr %7) #8
  store i64 0, ptr %7, align 8, !tbaa !34
  br label %12

12:                                               ; preds = %42, %3
  %13 = load i64, ptr %7, align 8, !tbaa !34
  %14 = load i64, ptr %5, align 8, !tbaa !34
  %15 = icmp ult i64 %13, %14
  br i1 %15, label %17, label %16

16:                                               ; preds = %12
  store i32 2, ptr %8, align 4
  call void @llvm.lifetime.end.p0(i64 8, ptr %7) #8
  br label %45

17:                                               ; preds = %12
  call void @llvm.lifetime.start.p0(i64 8, ptr %9) #8
  store i64 0, ptr %9, align 8, !tbaa !34
  br label %18

18:                                               ; preds = %38, %17
  %19 = load i64, ptr %9, align 8, !tbaa !34
  %20 = load i64, ptr %4, align 8, !tbaa !34
  %21 = icmp ult i64 %19, %20
  br i1 %21, label %23, label %22

22:                                               ; preds = %18
  store i32 5, ptr %8, align 4
  call void @llvm.lifetime.end.p0(i64 8, ptr %9) #8
  br label %41

23:                                               ; preds = %18
  call void @llvm.lifetime.start.p0(i64 1, ptr %10) #8
  %24 = load ptr, ptr %6, align 8, !tbaa !31
  %25 = getelementptr inbounds i8, ptr %24, i64 2
  %26 = load i8, ptr %25, align 1, !tbaa !35
  store i8 %26, ptr %10, align 1, !tbaa !35
  call void @llvm.lifetime.start.p0(i64 1, ptr %11) #8
  %27 = load ptr, ptr %6, align 8, !tbaa !31
  %28 = getelementptr inbounds i8, ptr %27, i64 0
  %29 = load i8, ptr %28, align 1, !tbaa !35
  store i8 %29, ptr %11, align 1, !tbaa !35
  %30 = load i8, ptr %10, align 1, !tbaa !35
  %31 = load ptr, ptr %6, align 8, !tbaa !31
  %32 = getelementptr inbounds i8, ptr %31, i64 0
  store i8 %30, ptr %32, align 1, !tbaa !35
  %33 = load i8, ptr %11, align 1, !tbaa !35
  %34 = load ptr, ptr %6, align 8, !tbaa !31
  %35 = getelementptr inbounds i8, ptr %34, i64 2
  store i8 %33, ptr %35, align 1, !tbaa !35
  %36 = load ptr, ptr %6, align 8, !tbaa !31
  %37 = getelementptr inbounds i8, ptr %36, i64 4
  store ptr %37, ptr %6, align 8, !tbaa !31
  call void @llvm.lifetime.end.p0(i64 1, ptr %11) #8
  call void @llvm.lifetime.end.p0(i64 1, ptr %10) #8
  br label %38

38:                                               ; preds = %23
  %39 = load i64, ptr %9, align 8, !tbaa !34
  %40 = add i64 %39, 1
  store i64 %40, ptr %9, align 8, !tbaa !34
  br label %18, !llvm.loop !36

41:                                               ; preds = %22
  br label %42

42:                                               ; preds = %41
  %43 = load i64, ptr %7, align 8, !tbaa !34
  %44 = add i64 %43, 1
  store i64 %44, ptr %7, align 8, !tbaa !34
  br label %12, !llvm.loop !38

45:                                               ; preds = %16
  ret void
}

; Function Attrs: nounwind uwtable
define internal void @zkitty_format(ptr noundef %0) #0 {
  %2 = alloca ptr, align 8
  %3 = alloca ptr, align 8
  %4 = alloca i64, align 8
  %5 = alloca ptr, align 8
  %6 = alloca i64, align 8
  %7 = alloca i32, align 4
  store ptr %0, ptr %2, align 8, !tbaa !3
  call void @llvm.lifetime.start.p0(i64 8, ptr %3) #8
  %8 = load ptr, ptr %2, align 8, !tbaa !3
  %9 = getelementptr inbounds nuw %struct.GVJ_s, ptr %8, i32 0, i32 25
  %10 = load ptr, ptr %9, align 8, !tbaa !8
  store ptr %10, ptr %3, align 8, !tbaa !31
  call void @llvm.lifetime.start.p0(i64 8, ptr %4) #8
  %11 = load ptr, ptr %2, align 8, !tbaa !3
  %12 = getelementptr inbounds nuw %struct.GVJ_s, ptr %11, i32 0, i32 47
  %13 = load i32, ptr %12, align 8, !tbaa !32
  %14 = load ptr, ptr %2, align 8, !tbaa !3
  %15 = getelementptr inbounds nuw %struct.GVJ_s, ptr %14, i32 0, i32 48
  %16 = load i32, ptr %15, align 4, !tbaa !33
  %17 = mul i32 %13, %16
  %18 = mul i32 %17, 4
  %19 = zext i32 %18 to i64
  store i64 %19, ptr %4, align 8, !tbaa !34
  %20 = load ptr, ptr %2, align 8, !tbaa !3
  %21 = getelementptr inbounds nuw %struct.GVJ_s, ptr %20, i32 0, i32 47
  %22 = load i32, ptr %21, align 8, !tbaa !32
  %23 = zext i32 %22 to i64
  %24 = load ptr, ptr %2, align 8, !tbaa !3
  %25 = getelementptr inbounds nuw %struct.GVJ_s, ptr %24, i32 0, i32 48
  %26 = load i32, ptr %25, align 4, !tbaa !33
  %27 = zext i32 %26 to i64
  %28 = load ptr, ptr %3, align 8, !tbaa !31
  call void @argb2rgba(i64 noundef %23, i64 noundef %27, ptr noundef %28)
  call void @llvm.lifetime.start.p0(i64 8, ptr %5) #8
  call void @llvm.lifetime.start.p0(i64 8, ptr %6) #8
  call void @llvm.lifetime.start.p0(i64 4, ptr %7) #8
  %29 = load ptr, ptr %3, align 8, !tbaa !31
  %30 = load i64, ptr %4, align 8, !tbaa !34
  %31 = call i32 @zlib_compress(ptr noundef %29, i64 noundef %30, ptr noundef %5, ptr noundef %6)
  store i32 %31, ptr %7, align 4, !tbaa !39
  %32 = load ptr, ptr %5, align 8, !tbaa !31
  %33 = load i64, ptr %6, align 8, !tbaa !34
  %34 = load ptr, ptr %2, align 8, !tbaa !3
  %35 = getelementptr inbounds nuw %struct.GVJ_s, ptr %34, i32 0, i32 47
  %36 = load i32, ptr %35, align 8, !tbaa !32
  %37 = load ptr, ptr %2, align 8, !tbaa !3
  %38 = getelementptr inbounds nuw %struct.GVJ_s, ptr %37, i32 0, i32 48
  %39 = load i32, ptr %38, align 4, !tbaa !33
  call void @kitty_write(ptr noundef %32, i64 noundef %33, i32 noundef %36, i32 noundef %39, i1 noundef zeroext true)
  %40 = load ptr, ptr %5, align 8, !tbaa !31
  call void @free(ptr noundef %40) #8
  call void @llvm.lifetime.end.p0(i64 4, ptr %7) #8
  call void @llvm.lifetime.end.p0(i64 8, ptr %6) #8
  call void @llvm.lifetime.end.p0(i64 8, ptr %5) #8
  call void @llvm.lifetime.end.p0(i64 8, ptr %4) #8
  call void @llvm.lifetime.end.p0(i64 8, ptr %3) #8
  ret void
}