; Function Attrs: nounwind uwtable
define internal void @zkitty_format(ptr noundef readonly captures(none) %0) #0 {
  %2 = alloca i64, align 8
  %3 = getelementptr inbounds nuw i8, ptr %0, i64 272
  %4 = load ptr, ptr %3, align 8, !tbaa !3
  %5 = getelementptr inbounds nuw i8, ptr %0, i64 576
  %6 = load i32, ptr %5, align 8, !tbaa !30
  %7 = getelementptr inbounds nuw i8, ptr %0, i64 580
  %8 = load i32, ptr %7, align 4, !tbaa !31
  %9 = shl i32 %6, 2
  %10 = mul i32 %9, %8
  %11 = zext i32 %10 to i64
  %12 = zext i32 %6 to i64
  %13 = zext i32 %8 to i64
  %.not.i = icmp eq i32 %8, 0
  %.not19.i = icmp eq i32 %6, 0
  %or.cond.i = or i1 %.not19.i, %.not.i
  br i1 %or.cond.i, label %argb2rgba.exit, label %.preheader.us.i

.preheader.us.i:                                  ; preds = %1, %._crit_edge.us.i
  %.017.us.i = phi ptr [ %18, %._crit_edge.us.i ], [ %4, %1 ]
  %.01216.us.i = phi i64 [ %20, %._crit_edge.us.i ], [ 0, %1 ]
  br label %14

14:                                               ; preds = %14, %.preheader.us.i
  %.115.us.i = phi ptr [ %.017.us.i, %.preheader.us.i ], [ %18, %14 ]
  %.01314.us.i = phi i64 [ 0, %.preheader.us.i ], [ %19, %14 ]
  %15 = getelementptr inbounds nuw i8, ptr %.115.us.i, i64 2
  %16 = load i8, ptr %15, align 1, !tbaa !32
  %17 = load i8, ptr %.115.us.i, align 1, !tbaa !32
  store i8 %16, ptr %.115.us.i, align 1, !tbaa !32
  store i8 %17, ptr %15, align 1, !tbaa !32
  %18 = getelementptr inbounds nuw i8, ptr %.115.us.i, i64 4
  %19 = add nuw nsw i64 %.01314.us.i, 1
  %exitcond.not.i = icmp eq i64 %19, %12
  br i1 %exitcond.not.i, label %._crit_edge.us.i, label %14, !llvm.loop !33

._crit_edge.us.i:                                 ; preds = %14
  %20 = add nuw nsw i64 %.01216.us.i, 1
  %exitcond21.not.i = icmp eq i64 %20, %13
  br i1 %exitcond21.not.i, label %argb2rgba.exit, label %.preheader.us.i, !llvm.loop !35

argb2rgba.exit:                                   ; preds = %._crit_edge.us.i, %1
  call void @llvm.lifetime.start.p0(i64 8, ptr nonnull %2) #9
  %21 = tail call i64 @compressBound(i64 noundef range(i64 0, 4294967296) %11) #9
  store i64 %21, ptr %2, align 8, !tbaa !38
  %22 = tail call noalias ptr @calloc(i64 noundef 1, i64 noundef %21) #10
  %23 = icmp ne i64 %21, 0
  %24 = icmp eq ptr %22, null
  %or.cond3.i.i.i = and i1 %23, %24
  br i1 %or.cond3.i.i.i, label %25, label %zlib_compress.exit

25:                                               ; preds = %argb2rgba.exit
  %26 = load ptr, ptr @stderr, align 8, !tbaa !36
  %27 = tail call i32 (ptr, ptr, ...) @fprintf(ptr noundef %26, ptr noundef nonnull @.str.11, i64 noundef %21) #11
  tail call fastcc void @graphviz_exit() #12
  unreachable

zlib_compress.exit:                               ; preds = %argb2rgba.exit
  %28 = call i32 @compress(ptr noundef %22, ptr noundef nonnull %2, ptr noundef %4, i64 noundef range(i64 0, 4294967296) %11) #9
  %29 = load i64, ptr %2, align 8, !tbaa !38
  call void @llvm.lifetime.end.p0(i64 8, ptr nonnull %2) #9
  %30 = load i32, ptr %5, align 8, !tbaa !30
  %31 = load i32, ptr %7, align 4, !tbaa !31
  call fastcc void @kitty_write(ptr noundef %22, i64 noundef %29, i32 noundef %30, i32 noundef %31, i1 noundef zeroext true)
  call void @free(ptr noundef %22) #9
  ret void
}